; Function Attrs: mustprogress uwtable
define void @_ZN8proxygen26PassThroughHTTPCodecFilter14generateHeaderERN5folly10IOBufQueueEmRKNS_11HTTPMessageEbPNS_14HTTPHeaderSizeERKNS1_8OptionalINS_11HTTPHeadersEEE(ptr nocapture noundef nonnull readonly align 8 dereferenceable(72) %this, ptr noundef nonnull align 8 dereferenceable(72) %writeBuf, i64 noundef %stream, ptr noundef nonnull align 8 dereferenceable(616) %msg, i1 noundef zeroext %eom, ptr noundef %size, ptr noundef nonnull align 8 dereferenceable(40) %extraHeaders) unnamed_addr #3 align 2 {
entry:
  %call_ = getelementptr inbounds i8, ptr %this, i64 24
  %0 = load ptr, ptr %call_, align 8
  %vtable = load ptr, ptr %0, align 8
  %vfn = getelementptr inbounds i8, ptr %vtable, i64 184
  %1 = load ptr, ptr %vfn, align 8
  tail call void %1(ptr noundef nonnull align 8 dereferenceable(8) %0, ptr noundef nonnull align 8 dereferenceable(72) %writeBuf, i64 noundef %stream, ptr noundef nonnull align 8 dereferenceable(616) %msg, i1 noundef zeroext %eom, ptr noundef %size, ptr noundef nonnull align 8 dereferenceable(40) %extraHeaders)
  ret void
}